; Function Attrs: nounwind uwtable
define hidden void @Curl_cookie_clearall(ptr noundef %0) local_unnamed_addr #0 {
  %.not = icmp eq ptr %0, null
  br i1 %.not, label %24, label %.preheader

.preheader:                                       ; preds = %1, %._crit_edge
  %indvars.iv = phi i64 [ %indvars.iv.next, %._crit_edge ], [ 0, %1 ]
  %2 = getelementptr inbounds nuw [63 x %struct.Curl_llist], ptr %0, i64 0, i64 %indvars.iv
  %3 = tail call ptr @Curl_llist_head(ptr noundef nonnull %2) #12
  %.not1314 = icmp eq ptr %3, null
  br i1 %.not1314, label %._crit_edge, label %.lr.ph

.lr.ph:                                           ; preds = %.preheader, %.lr.ph
  %.01115 = phi ptr [ %5, %.lr.ph ], [ %3, %.preheader ]
  %4 = tail call ptr @Curl_node_elem(ptr noundef nonnull %.01115) #12
  %5 = tail call ptr @Curl_node_next(ptr noundef nonnull %.01115) #12
  tail call void @Curl_node_remove(ptr noundef nonnull %.01115) #12
  %6 = load ptr, ptr @Curl_cfree, align 8, !tbaa !84
  %7 = getelementptr inbounds nuw i8, ptr %4, i64 96
  %8 = load ptr, ptr %7, align 8, !tbaa !106
  tail call void %6(ptr noundef %8) #12
  %9 = load ptr, ptr @Curl_cfree, align 8, !tbaa !84
  %10 = getelementptr inbounds nuw i8, ptr %4, i64 80
  %11 = load ptr, ptr %10, align 8, !tbaa !102
  tail call void %9(ptr noundef %11) #12
  %12 = load ptr, ptr @Curl_cfree, align 8, !tbaa !84
  %13 = getelementptr inbounds nuw i8, ptr %4, i64 88
  %14 = load ptr, ptr %13, align 8, !tbaa !101
  tail call void %12(ptr noundef %14) #12
  %15 = load ptr, ptr @Curl_cfree, align 8, !tbaa !84
  %16 = getelementptr inbounds nuw i8, ptr %4, i64 64
  %17 = load ptr, ptr %16, align 8, !tbaa !98
  tail call void %15(ptr noundef %17) #12
  %18 = load ptr, ptr @Curl_cfree, align 8, !tbaa !84
  %19 = getelementptr inbounds nuw i8, ptr %4, i64 72
  %20 = load ptr, ptr %19, align 8, !tbaa !108
  tail call void %18(ptr noundef %20) #12
  %21 = load ptr, ptr @Curl_cfree, align 8, !tbaa !84
  tail call void %21(ptr noundef %4) #12
  %.not13 = icmp eq ptr %5, null
  br i1 %.not13, label %._crit_edge, label %.lr.ph, !llvm.loop !124

._crit_edge:                                      ; preds = %.lr.ph, %.preheader
  %indvars.iv.next = add nuw nsw i64 %indvars.iv, 1
  %exitcond.not = icmp eq i64 %indvars.iv.next, 63
  br i1 %exitcond.not, label %22, label %.preheader, !llvm.loop !125

22:                                               ; preds = %._crit_edge
  %23 = getelementptr inbounds nuw i8, ptr %0, i64 2024
  store i32 0, ptr %23, align 8, !tbaa !114
  br label %24

24:                                               ; preds = %22, %1
  ret void
}